target datalayout = "e-m:e-p270:32:32-p271:32:32-p272:64:64-i64:64-i128:128-f80:128-n8:16:32:64-S128"
target triple = "x86_64-unknown-linux-gnu"

%"class.icu_75::CollationRuleParser" = type <{ ptr, ptr, ptr, ptr, ptr, ptr, ptr, ptr, ptr, i32, [4 x i8] }>

; Function Attrs: mustprogress uwtable
define void @_ZN6icu_7519CollationRuleParserC2EPKNS_13CollationDataER10UErrorCode(ptr noundef nonnull align 8 dereferenceable(76) %this, ptr noundef %base, ptr noundef nonnull align 4 dereferenceable(4) %errorCode) unnamed_addr #1 align 2 {
entry:
  %this.addr = alloca ptr, align 8
  %base.addr = alloca ptr, align 8
  %errorCode.addr = alloca ptr, align 8
  store ptr %this, ptr %this.addr, align 8
  store ptr %base, ptr %base.addr, align 8
  store ptr %errorCode, ptr %errorCode.addr, align 8
  %this1 = load ptr, ptr %this.addr, align 8
  %nfd = getelementptr inbounds %"class.icu_75::CollationRuleParser", ptr %this1, i32 0, i32 0
  %0 = load ptr, ptr %errorCode.addr, align 8
  %call = call noundef ptr @_ZN6icu_7511Normalizer214getNFDInstanceER10UErrorCode(ptr noundef nonnull align 4 dereferenceable(4) %0)
  store ptr %call, ptr %nfd, align 8
  %nfc = getelementptr inbounds %"class.icu_75::CollationRuleParser", ptr %this1, i32 0, i32 1
  %1 = load ptr, ptr %errorCode.addr, align 8
  %call2 = call noundef ptr @_ZN6icu_7511Normalizer214getNFCInstanceER10UErrorCode(ptr noundef nonnull align 4 dereferenceable(4) %1)
  store ptr %call2, ptr %nfc, align 8
  %rules = getelementptr inbounds %"class.icu_75::CollationRuleParser", ptr %this1, i32 0, i32 2
  store ptr null, ptr %rules, align 8
  %baseData = getelementptr inbounds %"class.icu_75::CollationRuleParser", ptr %this1, i32 0, i32 3
  %2 = load ptr, ptr %base.addr, align 8
  store ptr %2, ptr %baseData, align 8
  %settings = getelementptr inbounds %"class.icu_75::CollationRuleParser", ptr %this1, i32 0, i32 4
  store ptr null, ptr %settings, align 8
  %parseError = getelementptr inbounds %"class.icu_75::CollationRuleParser", ptr %this1, i32 0, i32 5
  store ptr null, ptr %parseError, align 8
  %errorReason = getelementptr inbounds %"class.icu_75::CollationRuleParser", ptr %this1, i32 0, i32 6
  store ptr null, ptr %errorReason, align 8
  %sink = getelementptr inbounds %"class.icu_75::CollationRuleParser", ptr %this1, i32 0, i32 7
  store ptr null, ptr %sink, align 8
  %importer = getelementptr inbounds %"class.icu_75::CollationRuleParser", ptr %this1, i32 0, i32 8
  store ptr null, ptr %importer, align 8
  %ruleIndex = getelementptr inbounds %"class.icu_75::CollationRuleParser", ptr %this1, i32 0, i32 9
  store i32 0, ptr %ruleIndex, align 8
  ret void
}