; Function Attrs: mustprogress uwtable
define void @_ZN6icu_7519CollationRuleParserC2EPKNS_13CollationDataER10UErrorCode(ptr nocapture noundef nonnull writeonly align 8 dereferenceable(76) %this, ptr noundef %base, ptr noundef nonnull align 4 dereferenceable(4) %errorCode) unnamed_addr #1 align 2 {
entry:
  %call = tail call noundef ptr @_ZN6icu_7511Normalizer214getNFDInstanceER10UErrorCode(ptr noundef nonnull align 4 dereferenceable(4) %errorCode)
  store ptr %call, ptr %this, align 8
  %nfc = getelementptr inbounds i8, ptr %this, i64 8
  %call2 = tail call noundef ptr @_ZN6icu_7511Normalizer214getNFCInstanceER10UErrorCode(ptr noundef nonnull align 4 dereferenceable(4) %errorCode)
  store ptr %call2, ptr %nfc, align 8
  %rules = getelementptr inbounds i8, ptr %this, i64 16
  store ptr null, ptr %rules, align 8
  %baseData = getelementptr inbounds i8, ptr %this, i64 24
  store ptr %base, ptr %baseData, align 8
  %settings = getelementptr inbounds i8, ptr %this, i64 32
  tail call void @llvm.memset.p0.i64(ptr noundef nonnull align 8 dereferenceable(44) %settings, i8 0, i64 44, i1 false)
  ret void
}